; Function Attrs: mustprogress uwtable
define dso_local noundef zeroext i1 @_ZN27cmCMakePresetsGraphInternal16PresetBoolHelperERbPKN4Json5ValueEP11cmJSONState(ptr noundef nonnull align 1 dereferenceable(1) %0, ptr noundef %1, ptr noundef %2) #3 personality ptr @__gxx_personality_v0 {
  %4 = alloca ptr, align 8
  %5 = alloca ptr, align 8
  %6 = alloca %"class.std::function.0", align 8
  %7 = load atomic i8, ptr @_ZGVZN27cmCMakePresetsGraphInternal16PresetBoolHelperERbPKN4Json5ValueEP11cmJSONStateE6helper acquire, align 8
  %8 = icmp eq i8 %7, 0
  br i1 %8, label %9, label %23, !prof !23

9:                                                ; preds = %3
  %10 = tail call i32 @__cxa_guard_acquire(ptr nonnull @_ZGVZN27cmCMakePresetsGraphInternal16PresetBoolHelperERbPKN4Json5ValueEP11cmJSONStateE6helper) #23
  %.not = icmp eq i32 %10, 0
  br i1 %.not, label %23, label %11

11:                                               ; preds = %9
  %12 = getelementptr inbounds i8, ptr %6, i64 16
  %13 = getelementptr inbounds i8, ptr %6, i64 24
  %14 = getelementptr inbounds i8, ptr %6, i64 8
  store i64 0, ptr %14, align 8
  store ptr @_ZN10JsonErrors12INVALID_BOOLEPKN4Json5ValueEP11cmJSONState, ptr %6, align 8
  store ptr @_ZNSt17_Function_handlerIFvPKN4Json5ValueEP11cmJSONStateEPS6_E9_M_invokeERKSt9_Any_dataOS3_OS5_, ptr %13, align 8
  store ptr @_ZNSt17_Function_handlerIFvPKN4Json5ValueEP11cmJSONStateEPS6_E10_M_managerERSt9_Any_dataRKS9_St18_Manager_operation, ptr %12, align 8
  invoke void @_ZN19cmJSONHelperBuilder4BoolERKSt8functionIFvPKN4Json5ValueEP11cmJSONStateEEb(ptr dead_on_unwind nonnull writable sret(%"class.std::function.2") align 8 @_ZZN27cmCMakePresetsGraphInternal16PresetBoolHelperERbPKN4Json5ValueEP11cmJSONStateE6helper, ptr noundef nonnull align 8 dereferenceable(32) %6, i1 noundef zeroext false)
          to label %15 unwind label %28

15:                                               ; preds = %11
  %16 = load ptr, ptr %12, align 8
  %.not.i.i = icmp eq ptr %16, null
  br i1 %.not.i.i, label %_ZNSt8functionIFvPKN4Json5ValueEP11cmJSONStateEED2Ev.exit, label %17

17:                                               ; preds = %15
  %18 = invoke noundef zeroext i1 %16(ptr noundef nonnull align 8 dereferenceable(16) %6, ptr noundef nonnull align 8 dereferenceable(16) %6, i32 noundef 3)
          to label %_ZNSt8functionIFvPKN4Json5ValueEP11cmJSONStateEED2Ev.exit unwind label %19

19:                                               ; preds = %17
  %20 = landingpad { ptr, i32 }
          catch ptr null
  %21 = extractvalue { ptr, i32 } %20, 0
  call void @__clang_call_terminate(ptr %21) #22
  unreachable

_ZNSt8functionIFvPKN4Json5ValueEP11cmJSONStateEED2Ev.exit: ; preds = %15, %17
  %22 = call i32 @__cxa_atexit(ptr nonnull @_ZNSt8functionIFbRbPKN4Json5ValueEP11cmJSONStateEED2Ev, ptr nonnull @_ZZN27cmCMakePresetsGraphInternal16PresetBoolHelperERbPKN4Json5ValueEP11cmJSONStateE6helper, ptr nonnull @__dso_handle) #23
  call void @__cxa_guard_release(ptr nonnull @_ZGVZN27cmCMakePresetsGraphInternal16PresetBoolHelperERbPKN4Json5ValueEP11cmJSONStateE6helper) #23
  br label %23

23:                                               ; preds = %_ZNSt8functionIFvPKN4Json5ValueEP11cmJSONStateEED2Ev.exit, %9, %3
  call void @llvm.lifetime.start.p0(i64 8, ptr nonnull %4)
  call void @llvm.lifetime.start.p0(i64 8, ptr nonnull %5)
  store ptr %1, ptr %4, align 8
  store ptr %2, ptr %5, align 8
  %24 = load ptr, ptr getelementptr inbounds (%"class.std::function.2", ptr @_ZZN27cmCMakePresetsGraphInternal16PresetBoolHelperERbPKN4Json5ValueEP11cmJSONStateE6helper, i64 0, i32 0, i32 1), align 8
  %.not.i.i4 = icmp eq ptr %24, null
  br i1 %.not.i.i4, label %25, label %_ZNKSt8functionIFbRbPKN4Json5ValueEP11cmJSONStateEEclES0_S4_S6_.exit

25:                                               ; preds = %23
  call void @_ZSt25__throw_bad_function_callv() #24
  unreachable

_ZNKSt8functionIFbRbPKN4Json5ValueEP11cmJSONStateEEclES0_S4_S6_.exit: ; preds = %23
  %26 = load ptr, ptr getelementptr inbounds (%"class.std::function.2", ptr @_ZZN27cmCMakePresetsGraphInternal16PresetBoolHelperERbPKN4Json5ValueEP11cmJSONStateE6helper, i64 0, i32 1), align 8
  %27 = call noundef zeroext i1 %26(ptr noundef nonnull align 8 dereferenceable(16) @_ZZN27cmCMakePresetsGraphInternal16PresetBoolHelperERbPKN4Json5ValueEP11cmJSONStateE6helper, ptr noundef nonnull align 1 dereferenceable(1) %0, ptr noundef nonnull align 8 dereferenceable(8) %4, ptr noundef nonnull align 8 dereferenceable(8) %5)
  call void @llvm.lifetime.end.p0(i64 8, ptr nonnull %4)
  call void @llvm.lifetime.end.p0(i64 8, ptr nonnull %5)
  ret i1 %27

28:                                               ; preds = %11
  %29 = landingpad { ptr, i32 }
          cleanup
  %30 = load ptr, ptr %12, align 8
  %.not.i.i5 = icmp eq ptr %30, null
  br i1 %.not.i.i5, label %_ZNSt8functionIFvPKN4Json5ValueEP11cmJSONStateEED2Ev.exit6, label %31

31:                                               ; preds = %28
  %32 = invoke noundef zeroext i1 %30(ptr noundef nonnull align 8 dereferenceable(16) %6, ptr noundef nonnull align 8 dereferenceable(16) %6, i32 noundef 3)
          to label %_ZNSt8functionIFvPKN4Json5ValueEP11cmJSONStateEED2Ev.exit6 unwind label %33

33:                                               ; preds = %31
  %34 = landingpad { ptr, i32 }
          catch ptr null
  %35 = extractvalue { ptr, i32 } %34, 0
  call void @__clang_call_terminate(ptr %35) #22
  unreachable

_ZNSt8functionIFvPKN4Json5ValueEP11cmJSONStateEED2Ev.exit6: ; preds = %28, %31
  call void @__cxa_guard_abort(ptr nonnull @_ZGVZN27cmCMakePresetsGraphInternal16PresetBoolHelperERbPKN4Json5ValueEP11cmJSONStateE6helper) #23
  resume { ptr, i32 } %29
}